; Function Attrs: nounwind uwtable
define void @Pf_ManComputeCuts(ptr noundef %0) local_unnamed_addr #0 {
  %2 = load ptr, ptr %0, align 8, !tbaa !95
  %3 = getelementptr inbounds nuw i8, ptr %2, i64 24
  %4 = load i32, ptr %3, align 8, !tbaa !97
  %5 = icmp sgt i32 %4, 0
  br i1 %5, label %.lr.ph, label %.critedge

.lr.ph:                                           ; preds = %1
  %6 = getelementptr i8, ptr %0, i64 96
  %7 = getelementptr i8, ptr %0, i64 112
  br label %8

8:                                                ; preds = %.lr.ph, %34
  %9 = phi ptr [ %2, %.lr.ph ], [ %35, %34 ]
  %indvars.iv = phi i64 [ 0, %.lr.ph ], [ %indvars.iv.next, %34 ]
  %10 = getelementptr i8, ptr %9, i64 32
  %.val = load ptr, ptr %10, align 8, !tbaa !117
  %.not = icmp eq ptr %.val, null
  br i1 %.not, label %.critedge, label %11

11:                                               ; preds = %8
  %12 = getelementptr inbounds nuw %struct.Gia_Obj_t_, ptr %.val, i64 %indvars.iv
  %.val24 = load i64, ptr %12, align 4
  %13 = and i64 %.val24, 2147483648
  %.not.i = icmp eq i64 %13, 0
  %14 = and i64 %.val24, 536870911
  %15 = icmp ne i64 %14, 536870911
  %narrow.i = and i1 %.not.i, %15
  br i1 %narrow.i, label %16, label %34

16:                                               ; preds = %11
  %17 = trunc i64 %.val24 to i32
  %18 = and i32 %17, 536870911
  %19 = lshr i64 %.val24, 32
  %20 = trunc nuw i64 %19 to i32
  %21 = and i32 %20, 536870911
  %22 = icmp eq i32 %18, %21
  %.not.i28 = icmp ne i32 %18, 536870911
  %or.cond.not.i = and i1 %.not.i28, %22
  %23 = trunc nuw nsw i64 %indvars.iv to i32
  br i1 %or.cond.not.i, label %24, label %33

24:                                               ; preds = %16
  %25 = sub nsw i32 %23, %18
  %.val23 = load ptr, ptr %6, align 8, !tbaa !103
  %26 = sext i32 %25 to i64
  %27 = getelementptr inbounds float, ptr %.val23, i64 %26
  %28 = load float, ptr %27, align 4, !tbaa !104
  %29 = getelementptr inbounds nuw float, ptr %.val23, i64 %indvars.iv
  store float %28, ptr %29, align 4, !tbaa !104
  %.val22 = load ptr, ptr %7, align 8, !tbaa !30
  %30 = getelementptr inbounds i32, ptr %.val22, i64 %26
  %31 = load i32, ptr %30, align 4, !tbaa !31
  %32 = getelementptr inbounds nuw i32, ptr %.val22, i64 %indvars.iv
  store i32 %31, ptr %32, align 4, !tbaa !31
  br label %34

33:                                               ; preds = %16
  tail call void @Pf_ObjMergeOrder(ptr noundef nonnull %0, i32 noundef %23)
  %.pre = load ptr, ptr %0, align 8, !tbaa !95
  br label %34

34:                                               ; preds = %11, %33, %24
  %35 = phi ptr [ %9, %11 ], [ %.pre, %33 ], [ %9, %24 ]
  %indvars.iv.next = add nuw nsw i64 %indvars.iv, 1
  %36 = getelementptr inbounds nuw i8, ptr %35, i64 24
  %37 = load i32, ptr %36, align 8, !tbaa !97
  %38 = sext i32 %37 to i64
  %39 = icmp slt i64 %indvars.iv.next, %38
  br i1 %39, label %8, label %.critedge, !llvm.loop !159

.critedge:                                        ; preds = %8, %34, %1
  ret void
}